target datalayout = "e-m:e-p270:32:32-p271:32:32-p272:64:64-i64:64-i128:128-f80:128-n8:16:32:64-S128"
target triple = "x86_64-unknown-linux-gnu"

%"class.icu_75::TailoredSet" = type <{ ptr, ptr, ptr, %"class.icu_75::UnicodeString", ptr, i32, [4 x i8] }>
%"class.icu_75::UnicodeString" = type { %"class.icu_75::Replaceable", %"union.icu_75::UnicodeString::StackBufferOrFields" }
%"class.icu_75::Replaceable" = type { %"class.icu_75::UObject" }
%"class.icu_75::UObject" = type { ptr }
%"union.icu_75::UnicodeString::StackBufferOrFields" = type { %struct.anon.0, [32 x i8] }
%struct.anon.0 = type { i16, i32, i32, ptr }
%"struct.icu_75::CollationData" = type <{ ptr, ptr, ptr, ptr, ptr, ptr, ptr, i32, i32, i32, i32, ptr, ptr, ptr, i32, i32, ptr, ptr, i32, [4 x i8], ptr, i32, [4 x i8] }>
%struct.UTrie2 = type { ptr, ptr, ptr, i32, i32, i16, i16, i32, i32, i32, i32, ptr, i32, i8, i8, i16, ptr }

; Function Attrs: mustprogress nounwind uwtable
define linkonce_odr noundef i32 @_ZN6icu_759Collation11tagFromCE32Ej(i32 noundef %ce32) #1 comdat align 2 {
entry:
  %ce32.addr = alloca i32, align 4
  store i32 %ce32, ptr %ce32.addr, align 4
  %0 = load i32, ptr %ce32.addr, align 4
  %and = and i32 %0, 15
  ret i32 %and
}

; Function Attrs: mustprogress uwtable
define linkonce_odr noundef signext i8 @_ZN6icu_759Collation19isSelfContainedCE32Ej(i32 noundef %ce32) #0 comdat align 2 {
entry:
  %ce32.addr = alloca i32, align 4
  store i32 %ce32, ptr %ce32.addr, align 4
  %0 = load i32, ptr %ce32.addr, align 4
  %call = call noundef signext i8 @_ZN6icu_759Collation13isSpecialCE32Ej(i32 noundef %0)
  %tobool = icmp ne i8 %call, 0
  br i1 %tobool, label %lor.lhs.false, label %lor.end

lor.lhs.false:                                    ; preds = %entry
  %1 = load i32, ptr %ce32.addr, align 4
  %call1 = call noundef i32 @_ZN6icu_759Collation11tagFromCE32Ej(i32 noundef %1)
  %cmp = icmp eq i32 %call1, 1
  br i1 %cmp, label %lor.end, label %lor.lhs.false2

lor.lhs.false2:                                   ; preds = %lor.lhs.false
  %2 = load i32, ptr %ce32.addr, align 4
  %call3 = call noundef i32 @_ZN6icu_759Collation11tagFromCE32Ej(i32 noundef %2)
  %cmp4 = icmp eq i32 %call3, 2
  br i1 %cmp4, label %lor.end, label %lor.rhs

lor.rhs:                                          ; preds = %lor.lhs.false2
  %3 = load i32, ptr %ce32.addr, align 4
  %call5 = call noundef i32 @_ZN6icu_759Collation11tagFromCE32Ej(i32 noundef %3)
  %cmp6 = icmp eq i32 %call5, 4
  br label %lor.end

lor.end:                                          ; preds = %lor.rhs, %lor.lhs.false2, %lor.lhs.false, %entry
  %4 = phi i1 [ true, %lor.lhs.false2 ], [ true, %lor.lhs.false ], [ true, %entry ], [ %cmp6, %lor.rhs ]
  %conv = zext i1 %4 to i8
  ret i8 %conv
}

; Function Attrs: mustprogress nounwind uwtable
define linkonce_odr noundef i32 @_ZNK6icu_7513CollationData7getCE32Ei(ptr noundef nonnull align 8 dereferenceable(140) %this, i32 noundef %c) #1 comdat align 2 {
entry:
  %this.addr = alloca ptr, align 8
  %c.addr = alloca i32, align 4
  store ptr %this, ptr %this.addr, align 8
  store i32 %c, ptr %c.addr, align 4
  %this1 = load ptr, ptr %this.addr, align 8
  %trie = getelementptr inbounds %"struct.icu_75::CollationData", ptr %this1, i32 0, i32 0
  %0 = load ptr, ptr %trie, align 8
  %data32 = getelementptr inbounds %struct.UTrie2, ptr %0, i32 0, i32 2
  %1 = load ptr, ptr %data32, align 8
  %2 = load i32, ptr %c.addr, align 4
  %cmp = icmp ult i32 %2, 55296
  br i1 %cmp, label %cond.true, label %cond.false

cond.true:                                        ; preds = %entry
  %trie2 = getelementptr inbounds %"struct.icu_75::CollationData", ptr %this1, i32 0, i32 0
  %3 = load ptr, ptr %trie2, align 8
  %index = getelementptr inbounds %struct.UTrie2, ptr %3, i32 0, i32 0
  %4 = load ptr, ptr %index, align 8
  %5 = load i32, ptr %c.addr, align 4
  %shr = ashr i32 %5, 5
  %add = add nsw i32 0, %shr
  %idxprom = sext i32 %add to i64
  %arrayidx = getelementptr inbounds i16, ptr %4, i64 %idxprom
  %6 = load i16, ptr %arrayidx, align 2
  %conv = zext i16 %6 to i32
  %shl = shl i32 %conv, 2
  %7 = load i32, ptr %c.addr, align 4
  %and = and i32 %7, 31
  %add3 = add nsw i32 %shl, %and
  br label %cond.end49

cond.false:                                       ; preds = %entry
  %8 = load i32, ptr %c.addr, align 4
  %cmp4 = icmp ule i32 %8, 65535
  br i1 %cmp4, label %cond.true5, label %cond.false17

cond.true5:                                       ; preds = %cond.false
  %trie6 = getelementptr inbounds %"struct.icu_75::CollationData", ptr %this1, i32 0, i32 0
  %9 = load ptr, ptr %trie6, align 8
  %index7 = getelementptr inbounds %struct.UTrie2, ptr %9, i32 0, i32 0
  %10 = load ptr, ptr %index7, align 8
  %11 = load i32, ptr %c.addr, align 4
  %cmp8 = icmp sle i32 %11, 56319
  %cond = select i1 %cmp8, i32 320, i32 0
  %12 = load i32, ptr %c.addr, align 4
  %shr9 = ashr i32 %12, 5
  %add10 = add nsw i32 %cond, %shr9
  %idxprom11 = sext i32 %add10 to i64
  %arrayidx12 = getelementptr inbounds i16, ptr %10, i64 %idxprom11
  %13 = load i16, ptr %arrayidx12, align 2
  %conv13 = zext i16 %13 to i32
  %shl14 = shl i32 %conv13, 2
  %14 = load i32, ptr %c.addr, align 4
  %and15 = and i32 %14, 31
  %add16 = add nsw i32 %shl14, %and15
  br label %cond.end47

cond.false17:                                     ; preds = %cond.false
  %15 = load i32, ptr %c.addr, align 4
  %cmp18 = icmp ugt i32 %15, 1114111
  br i1 %cmp18, label %cond.true19, label %cond.false20

cond.true19:                                      ; preds = %cond.false17
  br label %cond.end45

cond.false20:                                     ; preds = %cond.false17
  %16 = load i32, ptr %c.addr, align 4
  %trie21 = getelementptr inbounds %"struct.icu_75::CollationData", ptr %this1, i32 0, i32 0
  %17 = load ptr, ptr %trie21, align 8
  %highStart = getelementptr inbounds %struct.UTrie2, ptr %17, i32 0, i32 9
  %18 = load i32, ptr %highStart, align 4
  %cmp22 = icmp sge i32 %16, %18
  br i1 %cmp22, label %cond.true23, label %cond.false25

cond.true23:                                      ; preds = %cond.false20
  %trie24 = getelementptr inbounds %"struct.icu_75::CollationData", ptr %this1, i32 0, i32 0
  %19 = load ptr, ptr %trie24, align 8
  %highValueIndex = getelementptr inbounds %struct.UTrie2, ptr %19, i32 0, i32 10
  %20 = load i32, ptr %highValueIndex, align 8
  br label %cond.end

cond.false25:                                     ; preds = %cond.false20
  %trie26 = getelementptr inbounds %"struct.icu_75::CollationData", ptr %this1, i32 0, i32 0
  %21 = load ptr, ptr %trie26, align 8
  %index27 = getelementptr inbounds %struct.UTrie2, ptr %21, i32 0, i32 0
  %22 = load ptr, ptr %index27, align 8
  %trie28 = getelementptr inbounds %"struct.icu_75::CollationData", ptr %this1, i32 0, i32 0
  %23 = load ptr, ptr %trie28, align 8
  %index29 = getelementptr inbounds %struct.UTrie2, ptr %23, i32 0, i32 0
  %24 = load ptr, ptr %index29, align 8
  %25 = load i32, ptr %c.addr, align 4
  %shr30 = ashr i32 %25, 11
  %add31 = add nsw i32 2080, %shr30
  %idxprom32 = sext i32 %add31 to i64
  %arrayidx33 = getelementptr inbounds i16, ptr %24, i64 %idxprom32
  %26 = load i16, ptr %arrayidx33, align 2
  %conv34 = zext i16 %26 to i32
  %27 = load i32, ptr %c.addr, align 4
  %shr35 = ashr i32 %27, 5
  %and36 = and i32 %shr35, 63
  %add37 = add nsw i32 %conv34, %and36
  %idxprom38 = sext i32 %add37 to i64
  %arrayidx39 = getelementptr inbounds i16, ptr %22, i64 %idxprom38
  %28 = load i16, ptr %arrayidx39, align 2
  %conv40 = zext i16 %28 to i32
  %shl41 = shl i32 %conv40, 2
  %29 = load i32, ptr %c.addr, align 4
  %and42 = and i32 %29, 31
  %add43 = add nsw i32 %shl41, %and42
  br label %cond.end

cond.end:                                         ; preds = %cond.false25, %cond.true23
  %cond44 = phi i32 [ %20, %cond.true23 ], [ %add43, %cond.false25 ]
  br label %cond.end45

cond.end45:                                       ; preds = %cond.end, %cond.true19
  %cond46 = phi i32 [ 128, %cond.true19 ], [ %cond44, %cond.end ]
  br label %cond.end47

cond.end47:                                       ; preds = %cond.end45, %cond.true5
  %cond48 = phi i32 [ %add16, %cond.true5 ], [ %cond46, %cond.end45 ]
  br label %cond.end49

cond.end49:                                       ; preds = %cond.end47, %cond.true
  %cond50 = phi i32 [ %add3, %cond.true ], [ %cond48, %cond.end47 ]
  %idxprom51 = sext i32 %cond50 to i64
  %arrayidx52 = getelementptr inbounds i32, ptr %1, i64 %idxprom51
  %30 = load i32, ptr %arrayidx52, align 4
  ret i32 %30
}

; Function Attrs: mustprogress nounwind uwtable
define internal noundef signext i8 @_ZL9U_SUCCESS10UErrorCode(i32 noundef %code) #1 {
entry:
  %code.addr = alloca i32, align 4
  store i32 %code, ptr %code.addr, align 4
  %0 = load i32, ptr %code.addr, align 4
  %cmp = icmp sle i32 %0, 0
  %conv = zext i1 %cmp to i8
  ret i8 %conv
}

; Function Attrs: mustprogress nounwind uwtable
define linkonce_odr noundef signext i8 @_ZN6icu_759Collation13isSpecialCE32Ej(i32 noundef %ce32) #1 comdat align 2 {
entry:
  %ce32.addr = alloca i32, align 4
  store i32 %ce32, ptr %ce32.addr, align 4
  %0 = load i32, ptr %ce32.addr, align 4
  %and = and i32 %0, 255
  %cmp = icmp uge i32 %and, 192
  %conv = zext i1 %cmp to i8
  ret i8 %conv
}

; Function Attrs: mustprogress uwtable
define noundef signext i8 @_ZN6icu_7511TailoredSet10handleCE32Eiij(ptr noundef nonnull align 8 dereferenceable(100) %this, i32 noundef %start, i32 noundef %end, i32 noundef %ce32) #0 align 2 {
entry:
  %retval = alloca i8, align 1
  %this.addr = alloca ptr, align 8
  %start.addr = alloca i32, align 4
  %end.addr = alloca i32, align 4
  %ce32.addr = alloca i32, align 4
  %baseCE32 = alloca i32, align 4
  store ptr %this, ptr %this.addr, align 8
  store i32 %start, ptr %start.addr, align 4
  store i32 %end, ptr %end.addr, align 4
  store i32 %ce32, ptr %ce32.addr, align 4
  %this1 = load ptr, ptr %this.addr, align 8
  %0 = load i32, ptr %ce32.addr, align 4
  %call = call noundef signext i8 @_ZN6icu_759Collation13isSpecialCE32Ej(i32 noundef %0)
  %tobool = icmp ne i8 %call, 0
  br i1 %tobool, label %if.then, label %if.end5

if.then:                                          ; preds = %entry
  %data = getelementptr inbounds %"class.icu_75::TailoredSet", ptr %this1, i32 0, i32 0
  %1 = load ptr, ptr %data, align 8
  %2 = load i32, ptr %ce32.addr, align 4
  %call2 = call noundef i32 @_ZNK6icu_7513CollationData15getIndirectCE32Ej(ptr noundef nonnull align 8 dereferenceable(140) %1, i32 noundef %2)
  store i32 %call2, ptr %ce32.addr, align 4
  %3 = load i32, ptr %ce32.addr, align 4
  %cmp = icmp eq i32 %3, 192
  br i1 %cmp, label %if.then3, label %if.end

if.then3:                                         ; preds = %if.then
  %errorCode = getelementptr inbounds %"class.icu_75::TailoredSet", ptr %this1, i32 0, i32 5
  %4 = load i32, ptr %errorCode, align 8
  %call4 = call noundef signext i8 @_ZL9U_SUCCESS10UErrorCode(i32 noundef %4)
  store i8 %call4, ptr %retval, align 1
  br label %return

if.end:                                           ; preds = %if.then
  br label %if.end5

if.end5:                                          ; preds = %if.end, %entry
  br label %do.body

do.body:                                          ; preds = %do.cond, %if.end5
  %baseData = getelementptr inbounds %"class.icu_75::TailoredSet", ptr %this1, i32 0, i32 1
  %5 = load ptr, ptr %baseData, align 8
  %baseData6 = getelementptr inbounds %"class.icu_75::TailoredSet", ptr %this1, i32 0, i32 1
  %6 = load ptr, ptr %baseData6, align 8
  %7 = load i32, ptr %start.addr, align 4
  %call7 = call noundef i32 @_ZNK6icu_7513CollationData7getCE32Ei(ptr noundef nonnull align 8 dereferenceable(140) %6, i32 noundef %7)
  %call8 = call noundef i32 @_ZNK6icu_7513CollationData12getFinalCE32Ej(ptr noundef nonnull align 8 dereferenceable(140) %5, i32 noundef %call7)
  store i32 %call8, ptr %baseCE32, align 4
  %8 = load i32, ptr %ce32.addr, align 4
  %call9 = call noundef signext i8 @_ZN6icu_759Collation19isSelfContainedCE32Ej(i32 noundef %8)
  %tobool10 = icmp ne i8 %call9, 0
  br i1 %tobool10, label %land.lhs.true, label %if.else

land.lhs.true:                                    ; preds = %do.body
  %9 = load i32, ptr %baseCE32, align 4
  %call11 = call noundef signext i8 @_ZN6icu_759Collation19isSelfContainedCE32Ej(i32 noundef %9)
  %tobool12 = icmp ne i8 %call11, 0
  br i1 %tobool12, label %if.then13, label %if.else

if.then13:                                        ; preds = %land.lhs.true
  %10 = load i32, ptr %ce32.addr, align 4
  %11 = load i32, ptr %baseCE32, align 4
  %cmp14 = icmp ne i32 %10, %11
  br i1 %cmp14, label %if.then15, label %if.end17

if.then15:                                        ; preds = %if.then13
  %tailored = getelementptr inbounds %"class.icu_75::TailoredSet", ptr %this1, i32 0, i32 2
  %12 = load ptr, ptr %tailored, align 8
  %13 = load i32, ptr %start.addr, align 4
  %call16 = call noundef nonnull align 8 dereferenceable(200) ptr @_ZN6icu_7510UnicodeSet3addEi(ptr noundef nonnull align 8 dereferenceable(200) %12, i32 noundef %13)
  br label %if.end17

if.end17:                                         ; preds = %if.then15, %if.then13
  br label %if.end18

if.else:                                          ; preds = %land.lhs.true, %do.body
  %14 = load i32, ptr %start.addr, align 4
  %15 = load i32, ptr %ce32.addr, align 4
  %16 = load i32, ptr %baseCE32, align 4
  call void @_ZN6icu_7511TailoredSet7compareEijj(ptr noundef nonnull align 8 dereferenceable(100) %this1, i32 noundef %14, i32 noundef %15, i32 noundef %16)
  br label %if.end18

if.end18:                                         ; preds = %if.else, %if.end17
  br label %do.cond

do.cond:                                          ; preds = %if.end18
  %17 = load i32, ptr %start.addr, align 4
  %inc = add nsw i32 %17, 1
  store i32 %inc, ptr %start.addr, align 4
  %18 = load i32, ptr %end.addr, align 4
  %cmp19 = icmp sle i32 %inc, %18
  br i1 %cmp19, label %do.body, label %do.end, !llvm.loop !4

do.end:                                           ; preds = %do.cond
  %errorCode20 = getelementptr inbounds %"class.icu_75::TailoredSet", ptr %this1, i32 0, i32 5
  %19 = load i32, ptr %errorCode20, align 8
  %call21 = call noundef signext i8 @_ZL9U_SUCCESS10UErrorCode(i32 noundef %19)
  store i8 %call21, ptr %retval, align 1
  br label %return

return:                                           ; preds = %do.end, %if.then3
  %20 = load i8, ptr %retval, align 1
  ret i8 %20
}