; Function Attrs: mustprogress uwtable
define noundef signext i8 @_ZN6icu_7511TailoredSet10handleCE32Eiij(ptr noundef nonnull align 8 dereferenceable(100) %this, i32 noundef %start, i32 noundef %end, i32 noundef %ce32) local_unnamed_addr #0 align 2 {
entry:
  %and.i = and i32 %ce32, 192
  %cmp.i.not = icmp eq i32 %and.i, 192
  br i1 %cmp.i.not, label %if.then, label %if.end5

if.then:                                          ; preds = %entry
  %0 = load ptr, ptr %this, align 8
  %call2 = tail call noundef i32 @_ZNK6icu_7513CollationData15getIndirectCE32Ej(ptr noundef nonnull align 8 dereferenceable(140) %0, i32 noundef %ce32)
  %cmp = icmp eq i32 %call2, 192
  br i1 %cmp, label %return, label %if.end5

if.end5:                                          ; preds = %if.then, %entry
  %ce32.addr.0 = phi i32 [ %call2, %if.then ], [ %ce32, %entry ]
  %baseData = getelementptr inbounds i8, ptr %this, i64 8
  %and.i.i = and i32 %ce32.addr.0, 192
  %cmp.i.not.i = icmp eq i32 %and.i.i, 192
  %and.i4.i = and i32 %ce32.addr.0, 15
  %tailored = getelementptr inbounds i8, ptr %this, i64 16
  %smax = tail call i32 @llvm.smax.i32(i32 %end, i32 %start)
  br label %do.body

do.body:                                          ; preds = %do.cond, %if.end5
  %start.addr.0 = phi i32 [ %start, %if.end5 ], [ %inc, %do.cond ]
  %1 = load ptr, ptr %baseData, align 8
  %2 = load ptr, ptr %1, align 8
  %data32.i = getelementptr inbounds i8, ptr %2, i64 16
  %3 = load ptr, ptr %data32.i, align 8
  %cmp.i13 = icmp ult i32 %start.addr.0, 55296
  br i1 %cmp.i13, label %cond.true.i, label %cond.false.i

cond.true.i:                                      ; preds = %do.body
  %4 = load ptr, ptr %2, align 8
  %shr.i = lshr i32 %start.addr.0, 5
  %idxprom.i = zext nneg i32 %shr.i to i64
  %arrayidx.i = getelementptr inbounds i16, ptr %4, i64 %idxprom.i
  %5 = load i16, ptr %arrayidx.i, align 2
  %conv.i14 = zext i16 %5 to i32
  %shl.i = shl nuw nsw i32 %conv.i14, 2
  %and.i15 = and i32 %start.addr.0, 31
  %add3.i = add nuw nsw i32 %shl.i, %and.i15
  br label %_ZNK6icu_7513CollationData7getCE32Ei.exit

cond.false.i:                                     ; preds = %do.body
  %cmp4.i = icmp ult i32 %start.addr.0, 65536
  br i1 %cmp4.i, label %cond.true5.i, label %cond.false17.i

cond.true5.i:                                     ; preds = %cond.false.i
  %6 = load ptr, ptr %2, align 8
  %cmp8.i = icmp ult i32 %start.addr.0, 56320
  %cond.i = select i1 %cmp8.i, i32 320, i32 0
  %shr9.i = lshr i32 %start.addr.0, 5
  %add10.i = add nuw nsw i32 %cond.i, %shr9.i
  %idxprom11.i = zext nneg i32 %add10.i to i64
  %arrayidx12.i = getelementptr inbounds i16, ptr %6, i64 %idxprom11.i
  %7 = load i16, ptr %arrayidx12.i, align 2
  %conv13.i = zext i16 %7 to i32
  %shl14.i = shl nuw nsw i32 %conv13.i, 2
  %and15.i = and i32 %start.addr.0, 31
  %add16.i = add nuw nsw i32 %shl14.i, %and15.i
  br label %_ZNK6icu_7513CollationData7getCE32Ei.exit

cond.false17.i:                                   ; preds = %cond.false.i
  %cmp18.i = icmp ugt i32 %start.addr.0, 1114111
  br i1 %cmp18.i, label %_ZNK6icu_7513CollationData7getCE32Ei.exit, label %cond.false20.i

cond.false20.i:                                   ; preds = %cond.false17.i
  %highStart.i = getelementptr inbounds i8, ptr %2, i64 44
  %8 = load i32, ptr %highStart.i, align 4
  %cmp22.not.i = icmp sgt i32 %8, %start.addr.0
  br i1 %cmp22.not.i, label %cond.false25.i, label %cond.true23.i

cond.true23.i:                                    ; preds = %cond.false20.i
  %highValueIndex.i = getelementptr inbounds i8, ptr %2, i64 48
  %9 = load i32, ptr %highValueIndex.i, align 8
  br label %_ZNK6icu_7513CollationData7getCE32Ei.exit

cond.false25.i:                                   ; preds = %cond.false20.i
  %10 = load ptr, ptr %2, align 8
  %shr30.i = lshr i32 %start.addr.0, 11
  %11 = zext nneg i32 %shr30.i to i64
  %12 = getelementptr i16, ptr %10, i64 %11
  %arrayidx33.i = getelementptr i8, ptr %12, i64 4160
  %13 = load i16, ptr %arrayidx33.i, align 2
  %conv34.i = zext i16 %13 to i32
  %shr35.i = lshr i32 %start.addr.0, 5
  %and36.i = and i32 %shr35.i, 63
  %add37.i = add nuw nsw i32 %and36.i, %conv34.i
  %idxprom38.i = zext nneg i32 %add37.i to i64
  %arrayidx39.i = getelementptr inbounds i16, ptr %10, i64 %idxprom38.i
  %14 = load i16, ptr %arrayidx39.i, align 2
  %conv40.i = zext i16 %14 to i32
  %shl41.i = shl nuw nsw i32 %conv40.i, 2
  %and42.i = and i32 %start.addr.0, 31
  %add43.i = add nuw nsw i32 %shl41.i, %and42.i
  br label %_ZNK6icu_7513CollationData7getCE32Ei.exit

_ZNK6icu_7513CollationData7getCE32Ei.exit:        ; preds = %cond.true.i, %cond.true5.i, %cond.false17.i, %cond.true23.i, %cond.false25.i
  %cond50.i = phi i32 [ %add3.i, %cond.true.i ], [ %add16.i, %cond.true5.i ], [ 128, %cond.false17.i ], [ %9, %cond.true23.i ], [ %add43.i, %cond.false25.i ]
  %idxprom51.i = sext i32 %cond50.i to i64
  %arrayidx52.i = getelementptr inbounds i32, ptr %3, i64 %idxprom51.i
  %15 = load i32, ptr %arrayidx52.i, align 4
  %call8 = tail call noundef i32 @_ZNK6icu_7513CollationData12getFinalCE32Ej(ptr noundef nonnull align 8 dereferenceable(140) %1, i32 noundef %15)
  br i1 %cmp.i.not.i, label %lor.lhs.false.i, label %land.lhs.true

lor.lhs.false.i:                                  ; preds = %_ZNK6icu_7513CollationData7getCE32Ei.exit
  switch i32 %and.i4.i, label %if.else [
    i32 4, label %land.lhs.true
    i32 2, label %land.lhs.true
    i32 1, label %land.lhs.true
  ]

land.lhs.true:                                    ; preds = %lor.lhs.false.i, %lor.lhs.false.i, %lor.lhs.false.i, %_ZNK6icu_7513CollationData7getCE32Ei.exit
  %and.i.i17 = and i32 %call8, 192
  %cmp.i.not.i18 = icmp eq i32 %and.i.i17, 192
  br i1 %cmp.i.not.i18, label %lor.lhs.false.i20, label %if.then13

lor.lhs.false.i20:                                ; preds = %land.lhs.true
  %and.i4.i21 = and i32 %call8, 15
  switch i32 %and.i4.i21, label %if.else [
    i32 4, label %if.then13
    i32 2, label %if.then13
    i32 1, label %if.then13
  ]

if.then13:                                        ; preds = %lor.lhs.false.i20, %lor.lhs.false.i20, %lor.lhs.false.i20, %land.lhs.true
  %cmp14.not = icmp eq i32 %ce32.addr.0, %call8
  br i1 %cmp14.not, label %do.cond, label %if.then15

if.then15:                                        ; preds = %if.then13
  %16 = load ptr, ptr %tailored, align 8
  %call16 = tail call noundef nonnull align 8 dereferenceable(200) ptr @_ZN6icu_7510UnicodeSet3addEi(ptr noundef nonnull align 8 dereferenceable(200) %16, i32 noundef %start.addr.0)
  br label %do.cond

if.else:                                          ; preds = %lor.lhs.false.i20, %lor.lhs.false.i
  tail call void @_ZN6icu_7511TailoredSet7compareEijj(ptr noundef nonnull align 8 dereferenceable(100) %this, i32 noundef %start.addr.0, i32 noundef %ce32.addr.0, i32 noundef %call8)
  br label %do.cond

do.cond:                                          ; preds = %if.else, %if.then15, %if.then13
  %inc = add i32 %start.addr.0, 1
  %exitcond.not = icmp eq i32 %start.addr.0, %smax
  br i1 %exitcond.not, label %return, label %do.body, !llvm.loop !5

return:                                           ; preds = %do.cond, %if.then
  %retval.0.in.in.in = getelementptr inbounds i8, ptr %this, i64 96
  %retval.0.in.in = load i32, ptr %retval.0.in.in.in, align 8
  %retval.0.in = icmp slt i32 %retval.0.in.in, 1
  %retval.0 = zext i1 %retval.0.in to i8
  ret i8 %retval.0
}